
HMR.elf:     file format elf32-avr

Sections:
Idx Name          Size      VMA       LMA       File off  Algn
  0 .data         00000020  00800100  000001d6  0000024a  2**0
                  CONTENTS, ALLOC, LOAD, DATA
  1 .text         000001d6  00000000  00000000  00000074  2**1
                  CONTENTS, ALLOC, LOAD, READONLY, CODE
  2 .comment      00000030  00000000  00000000  0000026a  2**0
                  CONTENTS, READONLY
  3 .debug_aranges 000000b8  00000000  00000000  0000029a  2**0
                  CONTENTS, READONLY, DEBUGGING
  4 .debug_info   0000054f  00000000  00000000  00000352  2**0
                  CONTENTS, READONLY, DEBUGGING
  5 .debug_abbrev 00000321  00000000  00000000  000008a1  2**0
                  CONTENTS, READONLY, DEBUGGING
  6 .debug_line   000002ac  00000000  00000000  00000bc2  2**0
                  CONTENTS, READONLY, DEBUGGING
  7 .debug_frame  0000013c  00000000  00000000  00000e70  2**2
                  CONTENTS, READONLY, DEBUGGING
  8 .debug_str    00000210  00000000  00000000  00000fac  2**0
                  CONTENTS, READONLY, DEBUGGING
  9 .debug_loc    00000186  00000000  00000000  000011bc  2**0
                  CONTENTS, READONLY, DEBUGGING
 10 .debug_ranges 00000088  00000000  00000000  00001342  2**0
                  CONTENTS, READONLY, DEBUGGING

Disassembly of section .text:

00000000 <__vectors>:
   0:	0c 94 56 00 	jmp	0xac	; 0xac <__ctors_end>
   4:	0c 94 73 00 	jmp	0xe6	; 0xe6 <__bad_interrupt>
   8:	0c 94 73 00 	jmp	0xe6	; 0xe6 <__bad_interrupt>
   c:	0c 94 73 00 	jmp	0xe6	; 0xe6 <__bad_interrupt>
  10:	0c 94 73 00 	jmp	0xe6	; 0xe6 <__bad_interrupt>
  14:	0c 94 73 00 	jmp	0xe6	; 0xe6 <__bad_interrupt>
  18:	0c 94 73 00 	jmp	0xe6	; 0xe6 <__bad_interrupt>
  1c:	0c 94 73 00 	jmp	0xe6	; 0xe6 <__bad_interrupt>
  20:	0c 94 73 00 	jmp	0xe6	; 0xe6 <__bad_interrupt>
  24:	0c 94 73 00 	jmp	0xe6	; 0xe6 <__bad_interrupt>
  28:	0c 94 73 00 	jmp	0xe6	; 0xe6 <__bad_interrupt>
  2c:	0c 94 73 00 	jmp	0xe6	; 0xe6 <__bad_interrupt>
  30:	0c 94 73 00 	jmp	0xe6	; 0xe6 <__bad_interrupt>
  34:	0c 94 73 00 	jmp	0xe6	; 0xe6 <__bad_interrupt>
  38:	0c 94 73 00 	jmp	0xe6	; 0xe6 <__bad_interrupt>
  3c:	0c 94 73 00 	jmp	0xe6	; 0xe6 <__bad_interrupt>
  40:	0c 94 73 00 	jmp	0xe6	; 0xe6 <__bad_interrupt>
  44:	0c 94 73 00 	jmp	0xe6	; 0xe6 <__bad_interrupt>
  48:	0c 94 73 00 	jmp	0xe6	; 0xe6 <__bad_interrupt>
  4c:	0c 94 73 00 	jmp	0xe6	; 0xe6 <__bad_interrupt>
  50:	0c 94 73 00 	jmp	0xe6	; 0xe6 <__bad_interrupt>
  54:	0c 94 73 00 	jmp	0xe6	; 0xe6 <__bad_interrupt>
  58:	0c 94 73 00 	jmp	0xe6	; 0xe6 <__bad_interrupt>
  5c:	0c 94 73 00 	jmp	0xe6	; 0xe6 <__bad_interrupt>
  60:	0c 94 73 00 	jmp	0xe6	; 0xe6 <__bad_interrupt>
  64:	0c 94 73 00 	jmp	0xe6	; 0xe6 <__bad_interrupt>
  68:	0c 94 73 00 	jmp	0xe6	; 0xe6 <__bad_interrupt>
  6c:	0c 94 73 00 	jmp	0xe6	; 0xe6 <__bad_interrupt>
  70:	0c 94 73 00 	jmp	0xe6	; 0xe6 <__bad_interrupt>
  74:	0c 94 73 00 	jmp	0xe6	; 0xe6 <__bad_interrupt>
  78:	0c 94 73 00 	jmp	0xe6	; 0xe6 <__bad_interrupt>
  7c:	0c 94 73 00 	jmp	0xe6	; 0xe6 <__bad_interrupt>
  80:	0c 94 73 00 	jmp	0xe6	; 0xe6 <__bad_interrupt>
  84:	0c 94 73 00 	jmp	0xe6	; 0xe6 <__bad_interrupt>
  88:	0c 94 73 00 	jmp	0xe6	; 0xe6 <__bad_interrupt>
  8c:	0c 94 73 00 	jmp	0xe6	; 0xe6 <__bad_interrupt>
  90:	0c 94 73 00 	jmp	0xe6	; 0xe6 <__bad_interrupt>
  94:	0c 94 73 00 	jmp	0xe6	; 0xe6 <__bad_interrupt>
  98:	0c 94 73 00 	jmp	0xe6	; 0xe6 <__bad_interrupt>
  9c:	0c 94 73 00 	jmp	0xe6	; 0xe6 <__bad_interrupt>
  a0:	0c 94 73 00 	jmp	0xe6	; 0xe6 <__bad_interrupt>
  a4:	0c 94 73 00 	jmp	0xe6	; 0xe6 <__bad_interrupt>
  a8:	0c 94 73 00 	jmp	0xe6	; 0xe6 <__bad_interrupt>

000000ac <__ctors_end>:
  ac:	11 24       	eor	r1, r1
  ae:	1f be       	out	0x3f, r1	; 63
  b0:	cf ef       	ldi	r28, 0xFF	; 255
  b2:	da e0       	ldi	r29, 0x0A	; 10
  b4:	de bf       	out	0x3e, r29	; 62
  b6:	cd bf       	out	0x3d, r28	; 61

000000b8 <__do_copy_data>:
  b8:	11 e0       	ldi	r17, 0x01	; 1
  ba:	a0 e0       	ldi	r26, 0x00	; 0
  bc:	b1 e0       	ldi	r27, 0x01	; 1
  be:	e6 ed       	ldi	r30, 0xD6	; 214
  c0:	f1 e0       	ldi	r31, 0x01	; 1
  c2:	02 c0       	rjmp	.+4      	; 0xc8 <__do_copy_data+0x10>
  c4:	05 90       	lpm	r0, Z+
  c6:	0d 92       	st	X+, r0
  c8:	a0 32       	cpi	r26, 0x20	; 32
  ca:	b1 07       	cpc	r27, r17
  cc:	d9 f7       	brne	.-10     	; 0xc4 <__do_copy_data+0xc>

000000ce <__do_clear_bss>:
  ce:	21 e0       	ldi	r18, 0x01	; 1
  d0:	a0 e2       	ldi	r26, 0x20	; 32
  d2:	b1 e0       	ldi	r27, 0x01	; 1
  d4:	01 c0       	rjmp	.+2      	; 0xd8 <.do_clear_bss_start>

000000d6 <.do_clear_bss_loop>:
  d6:	1d 92       	st	X+, r1

000000d8 <.do_clear_bss_start>:
  d8:	a0 32       	cpi	r26, 0x20	; 32
  da:	b2 07       	cpc	r27, r18
  dc:	e1 f7       	brne	.-8      	; 0xd6 <.do_clear_bss_loop>
  de:	0e 94 75 00 	call	0xea	; 0xea <main>
  e2:	0c 94 e9 00 	jmp	0x1d2	; 0x1d2 <_exit>

000000e6 <__bad_interrupt>:
  e6:	0c 94 00 00 	jmp	0	; 0x0 <__vectors>

000000ea <main>:
#include "pwm.h"


int main(void)
{
	cli();
  ea:	f8 94       	cli
	uart_init();
  ec:	0e 94 cb 00 	call	0x196	; 0x196 <uart_init>
	pwm_init();
  f0:	0e 94 7c 00 	call	0xf8	; 0xf8 <pwm_init>
	sei();
  f4:	78 94       	sei
  f6:	ff cf       	rjmp	.-2      	; 0xf6 <main+0xc>

000000f8 <pwm_init>:
#include "usart.h"

void pwm_init()
{
	//Set the direction pins as output for the motor driver.
	DDRB |= (1 << DDB4) | (1 << DDB7);
  f8:	84 b1       	in	r24, 0x04	; 4
  fa:	80 69       	ori	r24, 0x90	; 144
  fc:	84 b9       	out	0x04, r24	; 4
	DDRC |= (1 << DDC7);
  fe:	3f 9a       	sbi	0x07, 7	; 7
	DDRF |= (1 << DDF7);
 100:	87 9a       	sbi	0x10, 7	; 16
	DDRB |= (1 << DDB5)|(1 << DDB6);//PWM pins
 102:	84 b1       	in	r24, 0x04	; 4
 104:	80 66       	ori	r24, 0x60	; 96
 106:	84 b9       	out	0x04, r24	; 4
	
	TCCR1A |= (1 << COM1A1) | (1 << COM1B1);
 108:	e0 e8       	ldi	r30, 0x80	; 128
 10a:	f0 e0       	ldi	r31, 0x00	; 0
 10c:	80 81       	ld	r24, Z
 10e:	80 6a       	ori	r24, 0xA0	; 160
 110:	80 83       	st	Z, r24
	TCCR1A |= (1 << WGM11);
 112:	80 81       	ld	r24, Z
 114:	82 60       	ori	r24, 0x02	; 2
 116:	80 83       	st	Z, r24
	TCCR1B |= (1 << WGM13) | (1 <<WGM12);
 118:	e1 e8       	ldi	r30, 0x81	; 129
 11a:	f0 e0       	ldi	r31, 0x00	; 0
 11c:	80 81       	ld	r24, Z
 11e:	88 61       	ori	r24, 0x18	; 24
 120:	80 83       	st	Z, r24
	TCCR1B |= (1 << CS10);
 122:	80 81       	ld	r24, Z
 124:	81 60       	ori	r24, 0x01	; 1
 126:	80 83       	st	Z, r24
	ICR1=0xFF;
 128:	8f ef       	ldi	r24, 0xFF	; 255
 12a:	90 e0       	ldi	r25, 0x00	; 0
 12c:	90 93 87 00 	sts	0x0087, r25
 130:	80 93 86 00 	sts	0x0086, r24
	uart_print("PWM initialization finished!\r\n");
 134:	80 e0       	ldi	r24, 0x00	; 0
 136:	91 e0       	ldi	r25, 0x01	; 1
 138:	0e 94 a9 00 	call	0x152	; 0x152 <uart_print>
	uart_flush();
 13c:	0e 94 dc 00 	call	0x1b8	; 0x1b8 <uart_flush>
 140:	08 95       	ret

00000142 <uart_transmit>:

// transmit a char to uart
void uart_transmit( unsigned char data )
{
	// wait for empty transmit buffer
	while ( ! ( UCSR1A & ( 1 << UDRE1 ) ) )
 142:	e8 ec       	ldi	r30, 0xC8	; 200
 144:	f0 e0       	ldi	r31, 0x00	; 0
 146:	90 81       	ld	r25, Z
 148:	95 ff       	sbrs	r25, 5
 14a:	fd cf       	rjmp	.-6      	; 0x146 <uart_transmit+0x4>
	;
	
	// put data into buffer, sends data
	UDR1 = data;
 14c:	80 93 ce 00 	sts	0x00CE, r24
 150:	08 95       	ret

00000152 <uart_print>:
}
// write a string to the uart
void uart_print( char data[] )
{
 152:	ef 92       	push	r14
 154:	ff 92       	push	r15
 156:	0f 93       	push	r16
 158:	1f 93       	push	r17
 15a:	cf 93       	push	r28
 15c:	df 93       	push	r29
 15e:	8c 01       	movw	r16, r24
 160:	7c 01       	movw	r14, r24
	int c = 0;
	
	for ( c = 0; c < strlen(data); c++ )
 162:	c0 e0       	ldi	r28, 0x00	; 0
 164:	d0 e0       	ldi	r29, 0x00	; 0
 166:	06 c0       	rjmp	.+12     	; 0x174 <uart_print+0x22>
	uart_transmit(data[c]);
 168:	f7 01       	movw	r30, r14
 16a:	81 91       	ld	r24, Z+
 16c:	7f 01       	movw	r14, r30
 16e:	0e 94 a1 00 	call	0x142	; 0x142 <uart_transmit>
// write a string to the uart
void uart_print( char data[] )
{
	int c = 0;
	
	for ( c = 0; c < strlen(data); c++ )
 172:	21 96       	adiw	r28, 0x01	; 1
 174:	f8 01       	movw	r30, r16
 176:	01 90       	ld	r0, Z+
 178:	00 20       	and	r0, r0
 17a:	e9 f7       	brne	.-6      	; 0x176 <uart_print+0x24>
 17c:	31 97       	sbiw	r30, 0x01	; 1
 17e:	e0 1b       	sub	r30, r16
 180:	f1 0b       	sbc	r31, r17
 182:	ce 17       	cp	r28, r30
 184:	df 07       	cpc	r29, r31
 186:	80 f3       	brcs	.-32     	; 0x168 <uart_print+0x16>
	uart_transmit(data[c]);
}
 188:	df 91       	pop	r29
 18a:	cf 91       	pop	r28
 18c:	1f 91       	pop	r17
 18e:	0f 91       	pop	r16
 190:	ff 90       	pop	r15
 192:	ef 90       	pop	r14
 194:	08 95       	ret

00000196 <uart_init>:
void uart_init(void)
{
	// set baud rate
	unsigned int baud = 16u;//BAUD_PRESCALE;
	
	UBRR1H = (unsigned char) (baud >> 8 );
 196:	10 92 cd 00 	sts	0x00CD, r1
	UBRR1L = (unsigned char)baud;
 19a:	80 e1       	ldi	r24, 0x10	; 16
 19c:	80 93 cc 00 	sts	0x00CC, r24
	UCSR1A |= (1 << U2X1);
 1a0:	e8 ec       	ldi	r30, 0xC8	; 200
 1a2:	f0 e0       	ldi	r31, 0x00	; 0
 1a4:	80 81       	ld	r24, Z
 1a6:	82 60       	ori	r24, 0x02	; 2
 1a8:	80 83       	st	Z, r24
	
	// enable received and transmitter
	UCSR1B = ( 1 << RXEN1 ) | ( 1 << TXEN1 );
 1aa:	88 e1       	ldi	r24, 0x18	; 24
 1ac:	80 93 c9 00 	sts	0x00C9, r24
	
	// set frame format ( 8data, 1stop )
	UCSR1C = (1 << UCSZ10) | (1 << UCSZ11);
 1b0:	86 e0       	ldi	r24, 0x06	; 6
 1b2:	80 93 ca 00 	sts	0x00CA, r24
 1b6:	08 95       	ret

000001b8 <uart_flush>:
}

void uart_flush(void)
{
	unsigned char dummy;
	while(UCSR1A & (1 << RXC1))
 1b8:	80 91 c8 00 	lds	r24, 0x00C8
 1bc:	88 23       	and	r24, r24
 1be:	44 f4       	brge	.+16     	; 0x1d0 <uart_flush+0x18>
	dummy = UDR1;
 1c0:	ae ec       	ldi	r26, 0xCE	; 206
 1c2:	b0 e0       	ldi	r27, 0x00	; 0
}

void uart_flush(void)
{
	unsigned char dummy;
	while(UCSR1A & (1 << RXC1))
 1c4:	e8 ec       	ldi	r30, 0xC8	; 200
 1c6:	f0 e0       	ldi	r31, 0x00	; 0
	dummy = UDR1;
 1c8:	8c 91       	ld	r24, X
}

void uart_flush(void)
{
	unsigned char dummy;
	while(UCSR1A & (1 << RXC1))
 1ca:	80 81       	ld	r24, Z
 1cc:	88 23       	and	r24, r24
 1ce:	e4 f3       	brlt	.-8      	; 0x1c8 <uart_flush+0x10>
 1d0:	08 95       	ret

000001d2 <_exit>:
 1d2:	f8 94       	cli

000001d4 <__stop_program>:
 1d4:	ff cf       	rjmp	.-2      	; 0x1d4 <__stop_program>
